target datalayout = "e-m:e-p270:32:32-p271:32:32-p272:64:64-i64:64-i128:128-f80:128-n8:16:32:64-S128"
target triple = "x86_64-pc-linux-gnu"

%struct._ir_array = type { ptr, i32 }

; Function Attrs: nounwind uwtable
define hidden void @ir_array_grow(ptr noundef %0, i32 noundef %1) #0 {
  %3 = alloca ptr, align 8
  %4 = alloca i32, align 4
  store ptr %0, ptr %3, align 8
  store i32 %1, ptr %4, align 4
  %5 = load ptr, ptr %3, align 8
  %6 = getelementptr inbounds %struct._ir_array, ptr %5, i32 0, i32 0
  %7 = load ptr, ptr %6, align 8
  %8 = load i32, ptr %4, align 4
  %9 = zext i32 %8 to i64
  %10 = mul i64 %9, 4
  %11 = call ptr @_erealloc(ptr noundef %7, i64 noundef %10) #14
  %12 = load ptr, ptr %3, align 8
  %13 = getelementptr inbounds %struct._ir_array, ptr %12, i32 0, i32 0
  store ptr %11, ptr %13, align 8
  %14 = load i32, ptr %4, align 4
  %15 = load ptr, ptr %3, align 8
  %16 = getelementptr inbounds %struct._ir_array, ptr %15, i32 0, i32 1
  store i32 %14, ptr %16, align 8
  ret void
}

; Function Attrs: nounwind uwtable
define hidden void @ir_array_insert(ptr noundef %0, i32 noundef %1, i32 noundef %2) #0 {
  %4 = alloca ptr, align 8
  %5 = alloca i32, align 4
  %6 = alloca i32, align 4
  store ptr %0, ptr %4, align 8
  store i32 %1, ptr %5, align 4
  store i32 %2, ptr %6, align 4
  %7 = load ptr, ptr %4, align 8
  %8 = getelementptr inbounds %struct._ir_array, ptr %7, i32 0, i32 0
  %9 = load ptr, ptr %8, align 8
  %10 = load ptr, ptr %4, align 8
  %11 = getelementptr inbounds %struct._ir_array, ptr %10, i32 0, i32 1
  %12 = load i32, ptr %11, align 8
  %13 = sub i32 %12, 1
  %14 = zext i32 %13 to i64
  %15 = getelementptr inbounds i32, ptr %9, i64 %14
  %16 = load i32, ptr %15, align 4
  %17 = icmp ne i32 %16, 0
  br i1 %17, label %18, label %24

18:                                               ; preds = %3
  %19 = load ptr, ptr %4, align 8
  %20 = load ptr, ptr %4, align 8
  %21 = getelementptr inbounds %struct._ir_array, ptr %20, i32 0, i32 1
  %22 = load i32, ptr %21, align 8
  %23 = add i32 %22, 1
  call void @ir_array_grow(ptr noundef %19, i32 noundef %23)
  br label %24

24:                                               ; preds = %18, %3
  %25 = load ptr, ptr %4, align 8
  %26 = getelementptr inbounds %struct._ir_array, ptr %25, i32 0, i32 0
  %27 = load ptr, ptr %26, align 8
  %28 = load i32, ptr %5, align 4
  %29 = zext i32 %28 to i64
  %30 = getelementptr inbounds i32, ptr %27, i64 %29
  %31 = getelementptr inbounds i32, ptr %30, i64 1
  %32 = load ptr, ptr %4, align 8
  %33 = getelementptr inbounds %struct._ir_array, ptr %32, i32 0, i32 0
  %34 = load ptr, ptr %33, align 8
  %35 = load i32, ptr %5, align 4
  %36 = zext i32 %35 to i64
  %37 = getelementptr inbounds i32, ptr %34, i64 %36
  %38 = load ptr, ptr %4, align 8
  %39 = getelementptr inbounds %struct._ir_array, ptr %38, i32 0, i32 1
  %40 = load i32, ptr %39, align 8
  %41 = load i32, ptr %5, align 4
  %42 = sub i32 %40, %41
  %43 = sub i32 %42, 1
  %44 = zext i32 %43 to i64
  %45 = mul i64 %44, 4
  call void @llvm.memmove.p0.p0.i64(ptr align 4 %31, ptr align 4 %37, i64 %45, i1 false)
  %46 = load i32, ptr %6, align 4
  %47 = load ptr, ptr %4, align 8
  %48 = getelementptr inbounds %struct._ir_array, ptr %47, i32 0, i32 0
  %49 = load ptr, ptr %48, align 8
  %50 = load i32, ptr %5, align 4
  %51 = zext i32 %50 to i64
  %52 = getelementptr inbounds i32, ptr %49, i64 %51
  store i32 %46, ptr %52, align 4
  ret void
}