; Function Attrs: nounwind uwtable
define hidden void @ir_array_insert(ptr nocapture noundef %0, i32 noundef %1, i32 noundef %2) local_unnamed_addr #0 {
  %4 = load ptr, ptr %0, align 8
  %5 = getelementptr inbounds i8, ptr %0, i64 8
  %6 = load i32, ptr %5, align 8
  %7 = add i32 %6, -1
  %8 = zext i32 %7 to i64
  %9 = getelementptr inbounds i32, ptr %4, i64 %8
  %10 = load i32, ptr %9, align 4
  %.not = icmp eq i32 %10, 0
  br i1 %.not, label %16, label %11

11:                                               ; preds = %3
  %12 = add i32 %6, 1
  %13 = zext i32 %12 to i64
  %14 = shl nuw nsw i64 %13, 2
  %15 = tail call ptr @_erealloc(ptr noundef nonnull %4, i64 noundef %14) #24
  store ptr %15, ptr %0, align 8
  store i32 %12, ptr %5, align 8
  br label %16

16:                                               ; preds = %11, %3
  %17 = phi i32 [ %12, %11 ], [ %6, %3 ]
  %18 = phi ptr [ %15, %11 ], [ %4, %3 ]
  %19 = zext i32 %1 to i64
  %20 = getelementptr inbounds i32, ptr %18, i64 %19
  %21 = getelementptr inbounds i8, ptr %20, i64 4
  %22 = xor i32 %1, -1
  %23 = add i32 %17, %22
  %24 = zext i32 %23 to i64
  %25 = shl nuw nsw i64 %24, 2
  tail call void @llvm.memmove.p0.p0.i64(ptr nonnull align 4 %21, ptr align 4 %20, i64 %25, i1 false)
  %26 = load ptr, ptr %0, align 8
  %27 = getelementptr inbounds i32, ptr %26, i64 %19
  store i32 %2, ptr %27, align 4
  ret void
}